; Function Attrs: nofree nosync nounwind memory(argmem: readwrite) uwtable
define void @Abc_QuickSort3(ptr noundef captures(none) %0, i32 noundef %1, i32 noundef %2) local_unnamed_addr #1 {
  %.not = icmp eq i32 %2, 0
  %4 = add nsw i32 %1, -1
  br i1 %.not, label %.loopexit.loopexit, label %.loopexit.loopexit13

.loopexit.loopexit13:                             ; preds = %3
  tail call void @Abc_QuickSort2Dec_rec(ptr noundef %0, i32 noundef 0, i32 noundef %4)
  br label %.loopexit

.loopexit.loopexit:                               ; preds = %3
  tail call void @Abc_QuickSort2Inc_rec(ptr noundef %0, i32 noundef 0, i32 noundef %4)
  br label %.loopexit

.loopexit:                                        ; preds = %.loopexit.loopexit13, %.loopexit.loopexit
  ret void
}